; Function Attrs: mustprogress nofree norecurse nosync nounwind willreturn memory(none) uwtable
define hidden noundef zeroext i1 @_ZN4cvc58internal4expr15isAssocCommIdemENS0_4kind6Kind_tE(i32 noundef %0) local_unnamed_addr #7 {
  switch i32 %0, label %2 [
    i32 24, label %3
    i32 22, label %3
    i32 249, label %3
    i32 348, label %3
    i32 349, label %3
    i32 93, label %3
    i32 95, label %3
    i32 155, label %3
    i32 153, label %3
  ]

2:                                                ; preds = %1
  br label %3

3:                                                ; preds = %1, %1, %1, %1, %1, %1, %1, %1, %1, %2
  %.0 = phi i1 [ false, %2 ], [ true, %1 ], [ true, %1 ], [ true, %1 ], [ true, %1 ], [ true, %1 ], [ true, %1 ], [ true, %1 ], [ true, %1 ], [ true, %1 ]
  ret i1 %.0
}